; Function Attrs: nounwind sspstrong uwtable
define dso_local i32 @address_space_write(ptr noundef readonly captures(none) %as, i64 noundef %addr, i32 %attrs.coerce, ptr noundef readonly captures(none) %buf, i64 noundef %len) local_unnamed_addr #0 {
entry:
  %cmp.not = icmp eq i64 %len, 0
  br i1 %cmp.not, label %if.end, label %if.then

if.then:                                          ; preds = %entry
  %call.i.i = tail call ptr @get_ptr_rcu_reader() #28
  %depth.i.i = getelementptr inbounds nuw i8, ptr %call.i.i, i64 12
  %0 = load i32, ptr %depth.i.i, align 4
  %inc.i.i = add i32 %0, 1
  store i32 %inc.i.i, ptr %depth.i.i, align 4
  %cmp.not.i.i = icmp eq i32 %0, 0
  br i1 %cmp.not.i.i, label %while.end.i.i, label %if.then.i.i

while.end.i.i:                                    ; preds = %if.then
  %1 = load atomic i64, ptr @rcu_gp_ctr monotonic, align 8
  %conv8.i.i = and i64 %1, 4294967295
  store atomic i64 %conv8.i.i, ptr %call.i.i monotonic, align 8
  tail call void asm sideeffect "", "~{memory},~{dirflag},~{fpsr},~{flags}"() #28, !srcloc !15
  fence seq_cst
  br label %if.then.i.i

if.then.i.i:                                      ; preds = %while.end.i.i, %if.then
  %current_map.i = getelementptr inbounds nuw i8, ptr %as, i64 32
  %2 = load atomic i64, ptr %current_map.i monotonic, align 8
  %3 = inttoptr i64 %2 to ptr
  tail call void asm sideeffect "", "~{memory},~{dirflag},~{fpsr},~{flags}"() #28, !srcloc !7
  %call3 = tail call fastcc i32 @flatview_write(ptr noundef %3, i64 noundef %addr, i32 %attrs.coerce, ptr noundef %buf, i64 noundef %len)
  %call.i.i.i.i = tail call ptr @get_ptr_rcu_reader() #28
  %depth.i.i.i.i = getelementptr inbounds nuw i8, ptr %call.i.i.i.i, i64 12
  %4 = load i32, ptr %depth.i.i.i.i, align 4
  %cmp.not.i.i.i.i = icmp eq i32 %4, 0
  br i1 %cmp.not.i.i.i.i, label %if.else.i.i.i.i, label %if.end.i.i.i.i

if.else.i.i.i.i:                                  ; preds = %if.then.i.i
  tail call void @__assert_fail(ptr noundef nonnull @.str.126, ptr noundef nonnull @.str.125, i32 noundef 101, ptr noundef nonnull @__PRETTY_FUNCTION__.rcu_read_unlock) #27
  unreachable

if.end.i.i.i.i:                                   ; preds = %if.then.i.i
  %dec.i.i.i.i = add i32 %4, -1
  store i32 %dec.i.i.i.i, ptr %depth.i.i.i.i, align 4
  %cmp2.not.i.i.i.i = icmp eq i32 %dec.i.i.i.i, 0
  br i1 %cmp2.not.i.i.i.i, label %while.end.i.i.i.i, label %if.end

while.end.i.i.i.i:                                ; preds = %if.end.i.i.i.i
  store atomic i64 0, ptr %call.i.i.i.i release, align 8
  tail call void asm sideeffect "", "~{memory},~{dirflag},~{fpsr},~{flags}"() #28, !srcloc !22
  fence seq_cst
  %waiting.i.i.i.i = getelementptr inbounds nuw i8, ptr %call.i.i.i.i, i64 8
  %5 = load atomic i8, ptr %waiting.i.i.i.i monotonic, align 8
  %tobool.i.i.i.i = trunc i8 %5 to i1
  br i1 %tobool.i.i.i.i, label %while.end21.i.i.i.i, label %if.end

while.end21.i.i.i.i:                              ; preds = %while.end.i.i.i.i
  store atomic i8 0, ptr %waiting.i.i.i.i monotonic, align 8
  tail call void @qemu_event_set(ptr noundef nonnull @rcu_gp_event) #28
  br label %if.end

if.end:                                           ; preds = %while.end21.i.i.i.i, %while.end.i.i.i.i, %if.end.i.i.i.i, %entry
  %result.0 = phi i32 [ 0, %entry ], [ %call3, %if.end.i.i.i.i ], [ %call3, %while.end.i.i.i.i ], [ %call3, %while.end21.i.i.i.i ]
  ret i32 %result.0
}